(dp0
S'RShoulderRoll'
p1
(lp2
(lp3
F1.72
aF2.24
aF2.72
aF3.24
aF3.72
aF4.24
aF11.28
aF16.64
aa(lp4
F-0.147262
aF-0.147262
aF-0.147262
aF-0.147262
aF-0.147262
aF-0.145728
aF-0.212254
aF-0.174064
aasS'RWristYaw'
p5
(lp6
(lp7
F1.72
aF2.24
aF2.72
aF3.24
aF3.72
aF4.24
aF4.72
aF5.24
aF5.72
aF6.24
aF6.72
aF7.24
aF7.72
aF8.24
aF8.72
aF9.24
aF9.72
aF10.24
aF10.72
aF11.24
aF11.72
aF12.2
aF12.72
aF13.28
aF13.84
aF14.36
aF14.72
aF15.16
aF15.8
aa(lp8
F0.0137641
aF0.0137641
aF0.0137641
aF0.0137641
aF0.0137641
aF0.00302601
aF-0.00310993
aF0.185572
aF0.688724
aF1.32687
aF1.51862
aF1.51708
aF1.51708
aF1.51555
aF1.19648
aF0.148756
aF-0.093616
aF-0.12583
aF-0.0307219
aF0.055182
aF0.107338
aF-0.0308786
aF0.0260564
aF0.0925888
aF0.170469
aF0.267189
aF0.283886
aF0.261978
aF0.179516
aasS'RElbowRoll'
p9
(lp10
(lp11
F1.72
aF2.24
aF2.72
aF3.24
aF3.72
aF4.24
aF4.72
aF5.24
aF5.72
aF6.24
aF6.72
aF7.24
aF7.72
aF8.24
aF8.72
aF9.24
aF9.72
aF10.24
aF10.72
aF11.24
aF11.72
aF12.24
aF12.72
aF13.24
aF13.72
aF14.24
aF14.68
aF15.52
aF16.6
aa(lp12
F0.17334
aF0.17334
aF0.17334
aF0.17334
aF0.17334
aF0.174874
aF0.190214
aF0.381961
aF1.00783
aF1.20724
aF1.17503
aF1.17503
aF1.17503
aF1.17503
aF1.19957
aF1.17963
aF1.1735
aF1.22412
aF1.2594
aF1.48336
aF1.56207
aF1.56207
aF1.56207
aF1.56207
aF1.56207
aF1.56207
aF1.34272
aF1.06547
aF0.060054
aasS'RElbowYaw'
p13
(lp14
(lp15
F1.72
aF2.24
aF2.72
aF3.24
aF3.72
aF4.24
aF4.76
aF5.24
aF5.72
aF6.24
aF6.72
aF7.24
aF7.72
aF8.24
aF8.72
aF9.24
aF9.72
aF10.24
aF10.72
aF11.24
aF11.72
aF12.24
aF12.72
aF13.24
aF13.72
aF14.24
aF14.72
aF15.2
aI16
aa(lp16
F1.73186
aF1.73186
aF1.73186
aF1.73186
aF1.73186
aF1.7288
aF1.72726
aF1.7334
aF1.7334
aF1.73953
aF1.73953
aF1.738
aF1.73953
aF1.738
aF1.738
aF1.738
aF1.738
aF1.738
aF1.73647
aF1.738
aF1.71499
aF1.71039
aF1.61375
aF1.43734
aF1.25019
aF1.23179
aF1.25277
aF1.23301
aF1.22591
aasS'RHand'
p17
(lp18
(lp19
F1.72
aF2.24
aF2.72
aF3.24
aF3.72
aF4.24
aF4.72
aF5.24
aF5.72
aF6.24
aF6.72
aF7.24
aF7.72
aF8.24
aF15.72
aa(lp20
F0.606327
aF0.606327
aF0.606327
aF0.606327
aF0.606327
aF0.606327
aF0.605448
aF0.605448
aF0.605448
aF0.605448
aF0.605448
aF0.605448
aF0.605448
aI0
aI0
aasS'RShoulderPitch'
p21
(lp22
(lp23
F1.72
aF2.24
aF2.72
aF3.24
aF3.72
aF4.24
aF4.72
aF5.24
aF5.72
aF6.24
aF6.72
aF7.24
aF7.72
aF8.24
aF8.72
aF9.24
aF9.72
aF10.24
aF10.72
aF11.24
aF11.72
aF12.24
aF12.88
aF13.24
aF13.72
aF14.24
aF14.72
aF15.8
aF16.2
aF16.64
aa(lp24
F1.36064
aF1.36064
aF1.36064
aF1.36064
aF1.36064
aF1.36064
aF1.35757
aF1.32996
aF1.32996
aF1.34684
aF1.35451
aF1.35451
aF1.35604
aF1.35604
aF1.35297
aF1.35297
aF1.35451
aF1.25633
aF0.972544
aF0.570641
aF0.0214758
aF-0.256175
aF-0.743724
aF-1.03697
aF-1.21798
aF-1.19037
aF-1.04464
aF-0.216035
aF0.365632
aF0.670916
aas.