(dp0
S'RShoulderRoll'
p1
(lp2
(lp3
F3.72
aF4.24
aF9.84
aF12.4
aF13.76
aa(lp4
F-0.147262
aF-0.226893
aF-0.226893
aF-0.41388
aF-0.146608
aasS'RWristYaw'
p5
(lp6
(lp7
F3.72
aF4.24
aF4.72
aF5.24
aF5.72
aF6.24
aF6.72
aF8.36
aF8.72
aF9.24
aF9.72
aF11.92
aF12.16
aF12.44
aF13.28
aa(lp8
F0.0137641
aF0.00302602
aF-0.00310993
aF0.185572
aF0.688724
aF1.32687
aF1.51862
aF1.51844
aF1.19648
aF0.148756
aF-0.0049172
aF0.0260564
aF0.0925888
aF0.170469
aF0.241218
aasS'RElbowRoll'
p9
(lp10
(lp11
F3.72
aF4.24
aF4.72
aF5.24
aF5.72
aF6.24
aF10.56
aF11.2
aF12.08
aF12.72
aF13.76
aa(lp12
F0.17334
aF0.174873
aF0.190213
aF0.381962
aF1.00783
aF1.20724
aF1.2225
aF1.35949
aF1.36364
aF1.21294
aF0.060054
aasS'RElbowYaw'
p13
(lp14
(lp15
F3.88
aF11.16
aF11.92
aF12.36
aF13.44
aa(lp16
F1.64054
aF1.64061
aF1.61375
aF1.38499
aF1.38563
aasS'RHand'
p17
(lp18
(lp19
F3.72
aF4.24
aF4.72
aF5.24
aF5.72
aF6.24
aF6.72
aF7.24
aF7.72
aF8.24
aF13.32
aa(lp20
F0.606327
aF0.606327
aF0.605448
aF0.605448
aF0.605448
aF0.605448
aF0.605448
aF0.605448
aF0.605448
aI0
aF0.02
aasS'RShoulderPitch'
p21
(lp22
(lp23
F3.72
aF9.84
aF10.24
aF10.72
aF11.16
aF11.4
aF11.6
aF11.92
aF12.16
aF12.32
aF12.6
aF12.84
aF13.36
aF13.56
aF13.8
aa(lp24
F1.36064
aF1.35974
aF1.25633
aF0.972545
aF0.512793
aF0.0214758
aF-0.279314
aF-0.743725
aF-1.03697
aF-1.1987
aF-1.19037
aF-1.04464
aF-0.216035
aF0.365633
aF0.670917
aas.