(dp0
S'RShoulderRoll'
p1
(lp2
(lp3
F3.72
aF4.24
aF9.84
aF12.4
aF13.76
aa(lp4
(lp5
F-0.147262
a(lp6
I3
aF-1.25333
aI0
aa(lp7
I3
aF0.173333
aI0
aaa(lp8
F-0.226893
a(lp9
I3
aF-0.173333
aI0
aa(lp10
I3
aF1.86667
aI0
aaa(lp11
F-0.226893
a(lp12
I3
aF-1.86667
aI0
aa(lp13
I3
aF0.853333
aI0
aaa(lp14
F-0.41388
a(lp15
I3
aF-0.853333
aI0
aa(lp16
I3
aF0.453333
aI0
aaa(lp17
F-0.146608
a(lp18
I3
aF-0.453333
aI0
aa(lp19
I3
aI0
aI0
aaaasS'RWristYaw'
p20
(lp21
(lp22
F3.72
aF4.24
aF4.72
aF5.24
aF5.72
aF6.24
aF6.72
aF8.36
aF8.72
aF9.24
aF9.72
aF11.92
aF12.16
aF12.44
aF13.28
aa(lp23
(lp24
F0.0137641
a(lp25
I3
aF-1.25333
aI0
aa(lp26
I3
aF0.173333
aI0
aaa(lp27
F0.00302602
a(lp28
I3
aF-0.173333
aF0.00292484
aa(lp29
I3
aF0.16
aF-0.00269985
aaa(lp30
F-0.00310993
a(lp31
I3
aF-0.16
aI0
aa(lp32
I3
aF0.173333
aI0
aaa(lp33
F0.185572
a(lp34
I3
aF-0.173333
aF-0.119918
aa(lp35
I3
aF0.16
aF0.110693
aaa(lp36
F0.688724
a(lp37
I3
aF-0.16
aF-0.182607
aa(lp38
I3
aF0.173333
aF0.197825
aaa(lp39
F1.32687
a(lp40
I3
aF-0.173333
aF-0.143848
aa(lp41
I3
aF0.16
aF0.132783
aaa(lp42
F1.51862
a(lp43
I3
aF-0.16
aI0
aa(lp44
I3
aF0.546667
aI0
aaa(lp45
F1.51844
a(lp46
I3
aF-0.546667
aF0.000181494
aa(lp47
I3
aF0.12
aF-3.98402e-05
aaa(lp48
F1.19648
a(lp49
I3
aF-0.12
aF0.186775
aa(lp50
I3
aF0.173333
aF-0.269786
aaa(lp51
F0.148756
a(lp52
I3
aF-0.173333
aF0.166479
aa(lp53
I3
aF0.16
aF-0.153673
aaa(lp54
F-0.0049172
a(lp55
I3
aF-0.16
aI0
aa(lp56
I3
aF0.733333
aI0
aaa(lp57
F0.0260564
a(lp58
I3
aF-0.733333
aF-0.0293051
aa(lp59
I3
aF0.08
aF0.00319692
aaa(lp60
F0.0925888
a(lp61
I3
aF-0.08
aF-0.0222173
aa(lp62
I3
aF0.0933333
aF0.0259202
aaa(lp63
F0.170469
a(lp64
I3
aF-0.0933333
aF-0.0123859
aa(lp65
I3
aF0.28
aF0.0371576
aaa(lp66
F0.241219
a(lp67
I3
aF-0.28
aI0
aa(lp68
I3
aI0
aI0
aaaasS'RElbowRoll'
p69
(lp70
(lp71
F3.72
aF4.24
aF4.72
aF5.24
aF5.72
aF6.24
aF10.56
aF11.2
aF12.08
aF12.72
aF13.76
aa(lp72
(lp73
F0.17334
a(lp74
I3
aF-1.25333
aI0
aa(lp75
I3
aF0.173333
aI0
aaa(lp76
F0.174873
a(lp77
I3
aF-0.173333
aF-0.00153345
aa(lp78
I3
aF0.16
aF0.00141549
aaa(lp79
F0.190213
a(lp80
I3
aF-0.16
aF-0.0153397
aa(lp81
I3
aF0.173333
aF0.016618
aaa(lp82
F0.381962
a(lp83
I3
aF-0.173333
aF-0.14172
aa(lp84
I3
aF0.16
aF0.130818
aaa(lp85
F1.00783
a(lp86
I3
aF-0.16
aF-0.132045
aa(lp87
I3
aF0.173333
aF0.143049
aaa(lp88
F1.20724
a(lp89
I3
aF-0.173333
aF-0.00183699
aa(lp90
I3
aF1.44
aF0.0152611
aaa(lp91
F1.2225
a(lp92
I3
aF-1.44
aF-0.0152611
aa(lp93
I3
aF0.213333
aF0.00226091
aaa(lp94
F1.35949
a(lp95
I3
aF-0.213333
aF-0.00301896
aa(lp96
I3
aF0.293333
aF0.00415107
aaa(lp97
F1.36364
a(lp98
I3
aF-0.293333
aI0
aa(lp99
I3
aF0.213333
aI0
aaa(lp100
F1.21294
a(lp101
I3
aF-0.213333
aF0.150701
aa(lp102
I3
aF0.346667
aF-0.244889
aaa(lp103
F0.060054
a(lp104
I3
aF-0.346667
aI0
aa(lp105
I3
aI0
aI0
aaaasS'RElbowYaw'
p106
(lp107
(lp108
F3.88
aF11.16
aF11.92
aF12.36
aF13.44
aa(lp109
(lp110
F1.64054
a(lp111
I3
aF-1.30667
aI0
aa(lp112
I3
aF2.42667
aI0
aaa(lp113
F1.64061
a(lp114
I3
aF-2.42667
aI0
aa(lp115
I3
aF0.253333
aI0
aaa(lp116
F1.61375
a(lp117
I3
aF-0.253333
aF0.0268624
aa(lp118
I3
aF0.146667
aF-0.0155519
aaa(lp119
F1.38499
a(lp120
I3
aF-0.146667
aI0
aa(lp121
I3
aF0.36
aI0
aaa(lp122
F1.38563
a(lp123
I3
aF-0.36
aI0
aa(lp124
I3
aI0
aI0
aaaasS'RHand'
p125
(lp126
(lp127
F3.72
aF4.24
aF4.72
aF5.24
aF5.72
aF6.24
aF6.72
aF7.24
aF7.72
aF8.24
aF13.32
aa(lp128
(lp129
F0.606327
a(lp130
I3
aF-1.25333
aI0
aa(lp131
I3
aF0.173333
aI0
aaa(lp132
F0.606327
a(lp133
I3
aF-0.173333
aI0
aa(lp134
I3
aF0.16
aI0
aaa(lp135
F0.605448
a(lp136
I3
aF-0.16
aI0
aa(lp137
I3
aF0.173333
aI0
aaa(lp138
F0.605448
a(lp139
I3
aF-0.173333
aI0
aa(lp140
I3
aF0.16
aI0
aaa(lp141
F0.605448
a(lp142
I3
aF-0.16
aI0
aa(lp143
I3
aF0.173333
aI0
aaa(lp144
F0.605448
a(lp145
I3
aF-0.173333
aI0
aa(lp146
I3
aF0.16
aI0
aaa(lp147
F0.605448
a(lp148
I3
aF-0.16
aI0
aa(lp149
I3
aF0.173333
aI0
aaa(lp150
F0.605448
a(lp151
I3
aF-0.173333
aI0
aa(lp152
I3
aF0.16
aI0
aaa(lp153
F0.605448
a(lp154
I3
aF-0.16
aI0
aa(lp155
I3
aF0.173333
aI0
aaa(lp156
I0
a(lp157
I3
aF-0.173333
aI0
aa(lp158
I3
aF1.69333
aI0
aaa(lp159
F0.02
a(lp160
I3
aF-1.69333
aI0
aa(lp161
I3
aI0
aI0
aaaasS'RShoulderPitch'
p162
(lp163
(lp164
F3.72
aF9.84
aF10.24
aF10.72
aF11.16
aF11.4
aF11.6
aF11.92
aF12.16
aF12.32
aF12.6
aF12.84
aF13.36
aF13.56
aF13.8
aa(lp165
(lp166
F1.36064
a(lp167
I3
aF-1.25333
aI0
aa(lp168
I3
aF2.04
aI0
aaa(lp169
F1.35974
a(lp170
I3
aF-2.04
aF0.000900681
aa(lp171
I3
aF0.133333
aF-5.88681e-05
aaa(lp172
F1.25633
a(lp173
I3
aF-0.133333
aF0.0586661
aa(lp174
I3
aF0.16
aF-0.0703993
aaa(lp175
F0.972545
a(lp176
I3
aF-0.16
aF0.129311
aa(lp177
I3
aF0.146667
aF-0.118535
aaa(lp178
F0.512794
a(lp179
I3
aF-0.146667
aF0.205132
aa(lp180
I3
aF0.08
aF-0.11189
aaa(lp181
F0.0214758
a(lp182
I3
aF-0.08
aF0.144019
aa(lp183
I3
aF0.0666667
aF-0.120016
aaa(lp184
F-0.279313
a(lp185
I3
aF-0.0666667
aF0.0981027
aa(lp186
I3
aF0.106667
aF-0.156964
aaa(lp187
F-0.743725
a(lp188
I3
aF-0.106667
aF0.144316
aa(lp189
I3
aF0.08
aF-0.108237
aaa(lp190
F-1.03697
a(lp191
I3
aF-0.08
aF0.0909948
aa(lp192
I3
aF0.0533333
aF-0.0606632
aaa(lp193
F-1.1987
a(lp194
I3
aF-0.0533333
aI0
aa(lp195
I3
aF0.0933333
aI0
aaa(lp196
F-1.19037
a(lp197
I3
aF-0.0933333
aF-0.0083305
aa(lp198
I3
aF0.08
aF0.00714043
aaa(lp199
F-1.04464
a(lp200
I3
aF-0.08
aF-0.102561
aa(lp201
I3
aF0.173333
aF0.222216
aaa(lp202
F-0.216035
a(lp203
I3
aF-0.173333
aF-0.33951
aa(lp204
I3
aF0.0666667
aF0.130581
aaa(lp205
F0.365633
a(lp206
I3
aF-0.0666667
aF-0.134387
aa(lp207
I3
aF0.08
aF0.161264
aaa(lp208
F0.670917
a(lp209
I3
aF-0.08
aI0
aa(lp210
I3
aI0
aI0
aaaas.