(dp0
S'RShoulderRoll'
p1
(lp2
(lp3
F0.3
aF2.43333
aa(lp4
(lp5
F-0.0905049
a(lp6
I3
aF-0.111111
aI0
aa(lp7
I3
aF0.711111
aI0
aaa(lp8
F-0.18738
a(lp9
I3
aF-0.711111
aI0
aa(lp10
I3
aI0
aI0
aaaasS'RWristYaw'
p11
(lp12
(lp13
F0.3
aF2.43333
aa(lp14
(lp15
F-0.219404
a(lp16
I3
aF-0.111111
aI0
aa(lp17
I3
aF0.711111
aI0
aaa(lp18
F-0.383542
a(lp19
I3
aF-0.711111
aI0
aa(lp20
I3
aI0
aI0
aaaasS'RElbowRoll'
p21
(lp22
(lp23
F0.3
aF1.3
aF1.96667
aF2.43333
aa(lp24
(lp25
F0.0184078
a(lp26
I3
aF-0.111111
aI0
aa(lp27
I3
aF0.333333
aI0
aaa(lp28
F1.37369
a(lp29
I3
aF-0.333333
aF-0.0326131
aa(lp30
I3
aF0.222222
aF0.021742
aaa(lp31
F1.39544
a(lp32
I3
aF-0.222222
aI0
aa(lp33
I3
aF0.155556
aI0
aaa(lp34
F0.401903
a(lp35
I3
aF-0.155556
aI0
aa(lp36
I3
aI0
aI0
aaaasS'RElbowYaw'
p37
(lp38
(lp39
F0.3
aF2.43333
aa(lp40
(lp41
F1.73186
a(lp42
I3
aF-0.111111
aI0
aa(lp43
I3
aF0.711111
aI0
aaa(lp44
F1.68278
a(lp45
I3
aF-0.711111
aI0
aa(lp46
I3
aI0
aI0
aaaasS'RHand'
p47
(lp48
(lp49
F0.3
aF2.43333
aa(lp50
(lp51
F0.535149
a(lp52
I3
aF-0.111111
aI0
aa(lp53
I3
aF0.711111
aI0
aaa(lp54
F0.507909
a(lp55
I3
aF-0.711111
aI0
aa(lp56
I3
aI0
aI0
aaaasS'RShoulderPitch'
p57
(lp58
(lp59
F0.3
aF1.2
aF2.1
aF2.56667
aF2.76667
aa(lp60
(lp61
F1.46342
a(lp62
I3
aF-0.111111
aI0
aa(lp63
I3
aF0.3
aI0
aaa(lp64
F0.128854
a(lp65
I3
aF-0.3
aF0.417272
aa(lp66
I3
aF0.3
aF-0.417272
aaa(lp67
F-1.04022
a(lp68
I3
aF-0.3
aI0
aa(lp69
I3
aF0.155556
aI0
aaa(lp70
F0.477687
a(lp71
I3
aF-0.155556
aF-0.631924
aa(lp72
I3
aF0.0666667
aF0.270824
aaa(lp73
F1.66803
a(lp74
I3
aF-0.0666667
aI0
aa(lp75
I3
aI0
aI0
aaaasS'HipPitch'
p76
(lp77
(lp78
F0.3
aF1.16667
aF2.43333
aF2.8
aa(lp79
(lp80
F-0.177553
a(lp81
I3
aF-0.111111
aI0
aa(lp82
I3
aF0.288889
aI0
aaa(lp83
F-0.342986
a(lp84
I3
aF-0.288889
aF0.0296132
aa(lp85
I3
aF0.422222
aF-0.0432808
aaa(lp86
F-0.396235
a(lp87
I3
aF-0.422222
aI0
aa(lp88
I3
aF0.122222
aI0
aaa(lp89
F-0.147349
a(lp90
I3
aF-0.122222
aI0
aa(lp91
I3
aI0
aI0
aaaas.